target datalayout = "e-m:e-p270:32:32-p271:32:32-p272:64:64-i64:64-i128:128-f80:128-n8:16:32:64-S128"
target triple = "x86_64-unknown-linux-gnu"

%"class.Imath_3_2::Box" = type { %"class.Imath_3_2::Vec2", %"class.Imath_3_2::Vec2" }
%"class.Imath_3_2::Vec2" = type { i32, i32 }
%"struct.std::_Rb_tree_key_compare" = type { %"struct.std::less" }
%"struct.std::less" = type { i8 }
%"struct.std::_Rb_tree_header" = type { %"struct.std::_Rb_tree_node_base", i64 }
%"struct.std::_Rb_tree_node_base" = type { i32, ptr, ptr, ptr }
%"class.Imf_3_2::Header" = type <{ %"class.std::map", i8, [7 x i8] }>
%"class.std::map" = type { %"class.std::_Rb_tree" }
%"class.std::_Rb_tree" = type { %"struct.std::_Rb_tree<Imf_3_2::Name, std::pair<const Imf_3_2::Name, Imf_3_2::Attribute *>, std::_Select1st<std::pair<const Imf_3_2::Name, Imf_3_2::Attribute *>>, std::less<Imf_3_2::Name>>::_Rb_tree_impl" }
%"struct.std::_Rb_tree<Imf_3_2::Name, std::pair<const Imf_3_2::Name, Imf_3_2::Attribute *>, std::_Select1st<std::pair<const Imf_3_2::Name, Imf_3_2::Attribute *>>, std::less<Imf_3_2::Name>>::_Rb_tree_impl" = type { %"struct.std::_Rb_tree_key_compare", %"struct.std::_Rb_tree_header" }
%"class.Imf_3_2::RgbaOutputFile" = type { ptr, ptr, ptr }

@_ZTVN7Imf_3_214RgbaOutputFileE = unnamed_addr constant { [4 x ptr] } { [4 x ptr] [ptr null, ptr @_ZTIN7Imf_3_214RgbaOutputFileE, ptr @_ZN7Imf_3_214RgbaOutputFileD1Ev, ptr @_ZN7Imf_3_214RgbaOutputFileD0Ev] }, align 8
@_ZN7Imf_3_214RgbaOutputFile5ToYcaC1ERNS_10OutputFileENS_12RgbaChannelsE = hidden unnamed_addr alias void (ptr, ptr, i32), ptr @_ZN7Imf_3_214RgbaOutputFile5ToYcaC2ERNS_10OutputFileENS_12RgbaChannelsE

; Function Attrs: mustprogress nounwind uwtable
define linkonce_odr hidden noundef nonnull align 4 dereferenceable(4) ptr @_ZNK9Imath_3_24Vec2IiEixEi(ptr noundef nonnull align 4 dereferenceable(8) %this, i32 noundef %i) #5 comdat align 2 {
entry:
  %this.addr = alloca ptr, align 8
  %i.addr = alloca i32, align 4
  store ptr %this, ptr %this.addr, align 8
  store i32 %i, ptr %i.addr, align 4
  %this1 = load ptr, ptr %this.addr, align 8
  %x = getelementptr inbounds %"class.Imath_3_2::Vec2", ptr %this1, i32 0, i32 0
  %0 = load i32, ptr %i.addr, align 4
  %idxprom = sext i32 %0 to i64
  %arrayidx = getelementptr inbounds i32, ptr %x, i64 %idxprom
  ret ptr %arrayidx
}

; Function Attrs: mustprogress nounwind uwtable
define linkonce_odr hidden noundef zeroext i1 @_ZNK9Imath_3_23BoxINS_4Vec2IiEEE7isEmptyEv(ptr noundef nonnull align 4 dereferenceable(16) %this) #5 comdat align 2 {
entry:
  %retval = alloca i1, align 1
  %this.addr = alloca ptr, align 8
  store ptr %this, ptr %this.addr, align 8
  %this1 = load ptr, ptr %this.addr, align 8
  %max = getelementptr inbounds %"class.Imath_3_2::Box", ptr %this1, i32 0, i32 1
  %call = call noundef nonnull align 4 dereferenceable(4) ptr @_ZNK9Imath_3_24Vec2IiEixEi(ptr noundef nonnull align 4 dereferenceable(8) %max, i32 noundef 0) #3
  %0 = load i32, ptr %call, align 4
  %min = getelementptr inbounds %"class.Imath_3_2::Box", ptr %this1, i32 0, i32 0
  %call2 = call noundef nonnull align 4 dereferenceable(4) ptr @_ZNK9Imath_3_24Vec2IiEixEi(ptr noundef nonnull align 4 dereferenceable(8) %min, i32 noundef 0) #3
  %1 = load i32, ptr %call2, align 4
  %cmp = icmp slt i32 %0, %1
  br i1 %cmp, label %if.then, label %lor.lhs.false

lor.lhs.false:                                    ; preds = %entry
  %max3 = getelementptr inbounds %"class.Imath_3_2::Box", ptr %this1, i32 0, i32 1
  %call4 = call noundef nonnull align 4 dereferenceable(4) ptr @_ZNK9Imath_3_24Vec2IiEixEi(ptr noundef nonnull align 4 dereferenceable(8) %max3, i32 noundef 1) #3
  %2 = load i32, ptr %call4, align 4
  %min5 = getelementptr inbounds %"class.Imath_3_2::Box", ptr %this1, i32 0, i32 0
  %call6 = call noundef nonnull align 4 dereferenceable(4) ptr @_ZNK9Imath_3_24Vec2IiEixEi(ptr noundef nonnull align 4 dereferenceable(8) %min5, i32 noundef 1) #3
  %3 = load i32, ptr %call6, align 4
  %cmp7 = icmp slt i32 %2, %3
  br i1 %cmp7, label %if.then, label %if.end

if.then:                                          ; preds = %lor.lhs.false, %entry
  store i1 true, ptr %retval, align 1
  br label %return

if.end:                                           ; preds = %lor.lhs.false
  store i1 false, ptr %retval, align 1
  br label %return

return:                                           ; preds = %if.end, %if.then
  %4 = load i1, ptr %retval, align 1
  ret i1 %4
}

; Function Attrs: mustprogress uwtable
define void @_ZN7Imf_3_214RgbaOutputFileC2EPKcRKN9Imath_3_23BoxINS3_4Vec2IiEEEES9_NS_12RgbaChannelsEfNS5_IfEEfNS_9LineOrderENS_11CompressionEi(ptr noundef nonnull align 8 dereferenceable(24) %this, ptr noundef %name, ptr noundef nonnull align 4 dereferenceable(16) %displayWindow, ptr noundef nonnull align 4 dereferenceable(16) %dataWindow, i32 noundef %rgbaChannels, float noundef %pixelAspectRatio, ptr noundef %screenWindowCenter, float noundef %screenWindowWidth, i32 noundef %lineOrder, i32 noundef %compression, i32 noundef %numThreads) unnamed_addr #4 align 2 personality ptr @__gxx_personality_v0 {
entry:
  %this.addr = alloca ptr, align 8
  %name.addr = alloca ptr, align 8
  %displayWindow.addr = alloca ptr, align 8
  %dataWindow.addr = alloca ptr, align 8
  %rgbaChannels.addr = alloca i32, align 4
  %pixelAspectRatio.addr = alloca float, align 4
  %screenWindowCenter.indirect_addr = alloca ptr, align 8
  %screenWindowWidth.addr = alloca float, align 4
  %lineOrder.addr = alloca i32, align 4
  %compression.addr = alloca i32, align 4
  %numThreads.addr = alloca i32, align 4
  %hd = alloca %"class.Imf_3_2::Header", align 8
  %exn.slot = alloca ptr, align 8
  %ehselector.slot = alloca i32, align 4
  store ptr %this, ptr %this.addr, align 8
  store ptr %name, ptr %name.addr, align 8
  store ptr %displayWindow, ptr %displayWindow.addr, align 8
  store ptr %dataWindow, ptr %dataWindow.addr, align 8
  store i32 %rgbaChannels, ptr %rgbaChannels.addr, align 4
  store float %pixelAspectRatio, ptr %pixelAspectRatio.addr, align 4
  store ptr %screenWindowCenter, ptr %screenWindowCenter.indirect_addr, align 8
  store float %screenWindowWidth, ptr %screenWindowWidth.addr, align 4
  store i32 %lineOrder, ptr %lineOrder.addr, align 4
  store i32 %compression, ptr %compression.addr, align 4
  store i32 %numThreads, ptr %numThreads.addr, align 4
  %this1 = load ptr, ptr %this.addr, align 8
  store ptr getelementptr inbounds ({ [4 x ptr] }, ptr @_ZTVN7Imf_3_214RgbaOutputFileE, i32 0, i32 0, i32 2), ptr %this1, align 8
  %_outputFile = getelementptr inbounds %"class.Imf_3_2::RgbaOutputFile", ptr %this1, i32 0, i32 1
  store ptr null, ptr %_outputFile, align 8
  %_toYca = getelementptr inbounds %"class.Imf_3_2::RgbaOutputFile", ptr %this1, i32 0, i32 2
  store ptr null, ptr %_toYca, align 8
  %0 = load ptr, ptr %displayWindow.addr, align 8
  %1 = load ptr, ptr %dataWindow.addr, align 8
  %call = call noundef zeroext i1 @_ZNK9Imath_3_23BoxINS_4Vec2IiEEE7isEmptyEv(ptr noundef nonnull align 4 dereferenceable(16) %1) #3
  br i1 %call, label %cond.true, label %cond.false

cond.true:                                        ; preds = %entry
  %2 = load ptr, ptr %displayWindow.addr, align 8
  br label %cond.end

cond.false:                                       ; preds = %entry
  %3 = load ptr, ptr %dataWindow.addr, align 8
  br label %cond.end

cond.end:                                         ; preds = %cond.false, %cond.true
  %cond-lvalue = phi ptr [ %2, %cond.true ], [ %3, %cond.false ]
  %4 = load float, ptr %pixelAspectRatio.addr, align 4
  %5 = load float, ptr %screenWindowWidth.addr, align 4
  %6 = load i32, ptr %lineOrder.addr, align 4
  %7 = load i32, ptr %compression.addr, align 4
  call void @_ZN7Imf_3_26HeaderC1ERKN9Imath_3_23BoxINS1_4Vec2IiEEEES7_fRKNS3_IfEEfNS_9LineOrderENS_11CompressionE(ptr noundef nonnull align 8 dereferenceable(49) %hd, ptr noundef nonnull align 4 dereferenceable(16) %0, ptr noundef nonnull align 4 dereferenceable(16) %cond-lvalue, float noundef %4, ptr noundef nonnull align 4 dereferenceable(8) %screenWindowCenter, float noundef %5, i32 noundef %6, i32 noundef %7)
  %8 = load i32, ptr %rgbaChannels.addr, align 4
  invoke void @_ZN7Imf_3_212_GLOBAL__N_114insertChannelsERNS_6HeaderENS_12RgbaChannelsE(ptr noundef nonnull align 8 dereferenceable(49) %hd, i32 noundef %8)
          to label %invoke.cont unwind label %lpad

invoke.cont:                                      ; preds = %cond.end
  %call3 = invoke noalias noundef nonnull ptr @_Znwm(i64 noundef 16) #13
          to label %invoke.cont2 unwind label %lpad

invoke.cont2:                                     ; preds = %invoke.cont
  %9 = load ptr, ptr %name.addr, align 8
  %10 = load i32, ptr %numThreads.addr, align 4
  invoke void @_ZN7Imf_3_210OutputFileC1EPKcRKNS_6HeaderEi(ptr noundef nonnull align 8 dereferenceable(16) %call3, ptr noundef %9, ptr noundef nonnull align 8 dereferenceable(49) %hd, i32 noundef %10)
          to label %invoke.cont5 unwind label %lpad4

invoke.cont5:                                     ; preds = %invoke.cont2
  %_outputFile6 = getelementptr inbounds %"class.Imf_3_2::RgbaOutputFile", ptr %this1, i32 0, i32 1
  store ptr %call3, ptr %_outputFile6, align 8
  %11 = load i32, ptr %rgbaChannels.addr, align 4
  %and = and i32 %11, 48
  %tobool = icmp ne i32 %and, 0
  br i1 %tobool, label %if.then, label %if.end

if.then:                                          ; preds = %invoke.cont5
  %call8 = invoke noalias noundef nonnull ptr @_Znwm(i64 noundef 352) #13
          to label %invoke.cont7 unwind label %lpad

invoke.cont7:                                     ; preds = %if.then
  %_outputFile9 = getelementptr inbounds %"class.Imf_3_2::RgbaOutputFile", ptr %this1, i32 0, i32 1
  %12 = load ptr, ptr %_outputFile9, align 8
  %13 = load i32, ptr %rgbaChannels.addr, align 4
  invoke void @_ZN7Imf_3_214RgbaOutputFile5ToYcaC1ERNS_10OutputFileENS_12RgbaChannelsE(ptr noundef nonnull align 8 dereferenceable(352) %call8, ptr noundef nonnull align 8 dereferenceable(16) %12, i32 noundef %13)
          to label %invoke.cont11 unwind label %lpad10

invoke.cont11:                                    ; preds = %invoke.cont7
  %_toYca12 = getelementptr inbounds %"class.Imf_3_2::RgbaOutputFile", ptr %this1, i32 0, i32 2
  store ptr %call8, ptr %_toYca12, align 8
  br label %if.end

lpad:                                             ; preds = %if.then, %invoke.cont, %cond.end
  %14 = landingpad { ptr, i32 }
          cleanup
  %15 = extractvalue { ptr, i32 } %14, 0
  store ptr %15, ptr %exn.slot, align 8
  %16 = extractvalue { ptr, i32 } %14, 1
  store i32 %16, ptr %ehselector.slot, align 4
  br label %ehcleanup

lpad4:                                            ; preds = %invoke.cont2
  %17 = landingpad { ptr, i32 }
          cleanup
  %18 = extractvalue { ptr, i32 } %17, 0
  store ptr %18, ptr %exn.slot, align 8
  %19 = extractvalue { ptr, i32 } %17, 1
  store i32 %19, ptr %ehselector.slot, align 4
  call void @_ZdlPv(ptr noundef %call3) #14
  br label %ehcleanup

lpad10:                                           ; preds = %invoke.cont7
  %20 = landingpad { ptr, i32 }
          cleanup
  %21 = extractvalue { ptr, i32 } %20, 0
  store ptr %21, ptr %exn.slot, align 8
  %22 = extractvalue { ptr, i32 } %20, 1
  store i32 %22, ptr %ehselector.slot, align 4
  call void @_ZdlPv(ptr noundef %call8) #14
  br label %ehcleanup

if.end:                                           ; preds = %invoke.cont11, %invoke.cont5
  call void @_ZN7Imf_3_26HeaderD1Ev(ptr noundef nonnull align 8 dereferenceable(49) %hd) #3
  ret void

ehcleanup:                                        ; preds = %lpad10, %lpad4, %lpad
  call void @_ZN7Imf_3_26HeaderD1Ev(ptr noundef nonnull align 8 dereferenceable(49) %hd) #3
  br label %eh.resume

eh.resume:                                        ; preds = %ehcleanup
  %exn = load ptr, ptr %exn.slot, align 8
  %sel = load i32, ptr %ehselector.slot, align 4
  %lpad.val = insertvalue { ptr, i32 } poison, ptr %exn, 0
  %lpad.val13 = insertvalue { ptr, i32 } %lpad.val, i32 %sel, 1
  resume { ptr, i32 } %lpad.val13
}