; Function Attrs: mustprogress uwtable
define void @_ZN7Imf_3_214RgbaOutputFileC2EPKcRKN9Imath_3_23BoxINS3_4Vec2IiEEEES9_NS_12RgbaChannelsEfNS5_IfEEfNS_9LineOrderENS_11CompressionEi(ptr nocapture noundef nonnull writeonly align 8 dereferenceable(24) %this, ptr noundef %name, ptr noundef nonnull align 4 dereferenceable(16) %displayWindow, ptr noundef nonnull align 4 dereferenceable(16) %dataWindow, i32 noundef %rgbaChannels, float noundef %pixelAspectRatio, ptr noundef nonnull %screenWindowCenter, float noundef %screenWindowWidth, i32 noundef %lineOrder, i32 noundef %compression, i32 noundef %numThreads) unnamed_addr #3 align 2 personality ptr @__gxx_personality_v0 {
entry:
  %hd = alloca %"class.Imf_3_2::Header", align 8
  store ptr getelementptr inbounds ({ [4 x ptr] }, ptr @_ZTVN7Imf_3_214RgbaOutputFileE, i64 0, i32 0, i64 2), ptr %this, align 8
  %_outputFile = getelementptr inbounds i8, ptr %this, i64 8
  %_toYca = getelementptr inbounds i8, ptr %this, i64 16
  %max.i = getelementptr inbounds i8, ptr %dataWindow, i64 8
  tail call void @llvm.memset.p0.i64(ptr noundef nonnull align 8 dereferenceable(16) %_outputFile, i8 0, i64 16, i1 false)
  %0 = load <2 x i32>, ptr %max.i, align 4
  %1 = load <2 x i32>, ptr %dataWindow, align 4
  %2 = icmp slt <2 x i32> %0, %1
  %3 = extractelement <2 x i1> %2, i64 0
  %4 = extractelement <2 x i1> %2, i64 1
  %retval.0.i = select i1 %3, i1 true, i1 %4
  %cond-lvalue = select i1 %retval.0.i, ptr %displayWindow, ptr %dataWindow
  call void @_ZN7Imf_3_26HeaderC1ERKN9Imath_3_23BoxINS1_4Vec2IiEEEES7_fRKNS3_IfEEfNS_9LineOrderENS_11CompressionE(ptr noundef nonnull align 8 dereferenceable(49) %hd, ptr noundef nonnull align 4 dereferenceable(16) %displayWindow, ptr noundef nonnull align 4 dereferenceable(16) %cond-lvalue, float noundef %pixelAspectRatio, ptr noundef nonnull align 4 dereferenceable(8) %screenWindowCenter, float noundef %screenWindowWidth, i32 noundef %lineOrder, i32 noundef %compression)
  invoke fastcc void @_ZN7Imf_3_212_GLOBAL__N_114insertChannelsERNS_6HeaderENS_12RgbaChannelsE(ptr noundef nonnull align 8 dereferenceable(49) %hd, i32 noundef %rgbaChannels)
          to label %invoke.cont unwind label %lpad

invoke.cont:                                      ; preds = %entry
  %call3 = invoke noalias noundef nonnull dereferenceable(16) ptr @_Znwm(i64 noundef 16) #23
          to label %invoke.cont2 unwind label %lpad

invoke.cont2:                                     ; preds = %invoke.cont
  invoke void @_ZN7Imf_3_210OutputFileC1EPKcRKNS_6HeaderEi(ptr noundef nonnull align 8 dereferenceable(16) %call3, ptr noundef %name, ptr noundef nonnull align 8 dereferenceable(49) %hd, i32 noundef %numThreads)
          to label %invoke.cont5 unwind label %lpad4

invoke.cont5:                                     ; preds = %invoke.cont2
  store ptr %call3, ptr %_outputFile, align 8
  %and = and i32 %rgbaChannels, 48
  %tobool.not = icmp eq i32 %and, 0
  br i1 %tobool.not, label %if.end, label %if.then

if.then:                                          ; preds = %invoke.cont5
  %call8 = invoke noalias noundef nonnull dereferenceable(352) ptr @_Znwm(i64 noundef 352) #23
          to label %invoke.cont7 unwind label %lpad

invoke.cont7:                                     ; preds = %if.then
  invoke void @_ZN7Imf_3_214RgbaOutputFile5ToYcaC2ERNS_10OutputFileENS_12RgbaChannelsE(ptr noundef nonnull align 8 dereferenceable(352) %call8, ptr noundef nonnull align 8 dereferenceable(16) %call3, i32 noundef %rgbaChannels)
          to label %invoke.cont11 unwind label %lpad10

invoke.cont11:                                    ; preds = %invoke.cont7
  store ptr %call8, ptr %_toYca, align 8
  br label %if.end

lpad:                                             ; preds = %if.then, %invoke.cont, %entry
  %5 = landingpad { ptr, i32 }
          cleanup
  br label %ehcleanup

lpad4:                                            ; preds = %invoke.cont2
  %6 = landingpad { ptr, i32 }
          cleanup
  call void @_ZdlPv(ptr noundef nonnull %call3) #24
  br label %ehcleanup

lpad10:                                           ; preds = %invoke.cont7
  %7 = landingpad { ptr, i32 }
          cleanup
  call void @_ZdlPv(ptr noundef nonnull %call8) #24
  br label %ehcleanup

if.end:                                           ; preds = %invoke.cont11, %invoke.cont5
  call void @_ZN7Imf_3_26HeaderD1Ev(ptr noundef nonnull align 8 dereferenceable(49) %hd) #25
  ret void

ehcleanup:                                        ; preds = %lpad10, %lpad4, %lpad
  %.pn = phi { ptr, i32 } [ %7, %lpad10 ], [ %5, %lpad ], [ %6, %lpad4 ]
  call void @_ZN7Imf_3_26HeaderD1Ev(ptr noundef nonnull align 8 dereferenceable(49) %hd) #25
  resume { ptr, i32 } %.pn
}